; Function Attrs: nounwind uwtable
define range(i32 0, 2) i32 @SCT_CTX_set1_issuer(ptr noundef captures(none) %0, ptr noundef %1) local_unnamed_addr #0 {
  %3 = tail call ptr @X509_get_X509_PUBKEY(ptr noundef %1) #4
  %4 = getelementptr inbounds nuw i8, ptr %0, i64 24
  %5 = getelementptr inbounds nuw i8, ptr %0, i64 32
  %6 = getelementptr i8, ptr %0, i64 80
  %.val.i = load ptr, ptr %6, align 8, !tbaa !3
  %7 = getelementptr i8, ptr %0, i64 88
  %.val4.i = load ptr, ptr %7, align 8, !tbaa !12
  %8 = tail call fastcc range(i32 0, 2) i32 @ct_public_key_hash(ptr %.val.i, ptr %.val4.i, ptr noundef %3, ptr noundef nonnull %4, ptr noundef nonnull %5)
  ret i32 %8
}